; ModuleID = 'source-C-CXX/27/48.c'
source_filename = "source-C-CXX/27/48.c"
target datalayout = "e-m:e-p270:32:32-p271:32:32-p272:64:64-i64:64-f80:128-n8:16:32:64-S128"
target triple = "x86_64-pc-linux-gnu"

%struct._IO_FILE = type { i32, i8*, i8*, i8*, i8*, i8*, i8*, i8*, i8*, i8*, i8*, i8*, %struct._IO_marker*, %struct._IO_FILE*, i32, i32, i64, i16, i8, [1 x i8], i8*, i64, %struct._IO_codecvt*, %struct._IO_wide_data*, %struct._IO_FILE*, i8*, i64, i32, [20 x i8] }
%struct._IO_marker = type opaque
%struct._IO_codecvt = type opaque
%struct._IO_wide_data = type opaque

@.str = private unnamed_addr constant [3 x i8] c"%d\00", align 1
@.str.1 = private unnamed_addr constant [4 x i8] c",%d\00", align 1
@stdin = external local_unnamed_addr global %struct._IO_FILE*, align 8

; Function Attrs: nofree nounwind sspstrong uwtable
define dso_local void @main() local_unnamed_addr #0 {
  %1 = alloca [300 x i32], align 16
  %2 = bitcast [300 x i32]* %1 to i8*
  call void @llvm.lifetime.start.p0i8(i64 1200, i8* nonnull %2) #3
  br label %3

3:                                                ; preds = %14, %0
  %4 = phi i32 [ %15, %14 ], [ 0, %0 ]
  br label %5

5:                                                ; preds = %12, %3
  %6 = phi i32 [ 0, %3 ], [ %13, %12 ]
  %7 = load %struct._IO_FILE*, %struct._IO_FILE** @stdin, align 8, !tbaa !5
  %8 = tail call i32 @getc(%struct._IO_FILE* %7) #3
  %9 = shl i32 %8, 24
  switch i32 %9, label %18 [
    i32 167772160, label %20
    i32 536870912, label %10
  ]

10:                                               ; preds = %5
  %11 = icmp eq i32 %6, 0
  br i1 %11, label %12, label %14

12:                                               ; preds = %10, %18
  %13 = phi i32 [ 0, %10 ], [ %19, %18 ]
  br label %5, !llvm.loop !9

14:                                               ; preds = %10
  %15 = add nuw nsw i32 %4, 1
  %16 = zext i32 %15 to i64
  %17 = getelementptr inbounds [300 x i32], [300 x i32]* %1, i64 0, i64 %16
  store i32 %6, i32* %17, align 4, !tbaa !11
  br label %3, !llvm.loop !9

18:                                               ; preds = %5
  %19 = add nsw i32 %6, 1
  br label %12

20:                                               ; preds = %5
  %21 = add nuw nsw i32 %4, 1
  %22 = zext i32 %21 to i64
  %23 = getelementptr inbounds [300 x i32], [300 x i32]* %1, i64 0, i64 %22
  store i32 %6, i32* %23, align 4, !tbaa !11
  %24 = getelementptr inbounds [300 x i32], [300 x i32]* %1, i64 0, i64 1
  %25 = load i32, i32* %24, align 4, !tbaa !11
  %26 = tail call i32 (i8*, ...) @printf(i8* nonnull dereferenceable(1) getelementptr inbounds ([3 x i8], [3 x i8]* @.str, i64 0, i64 0), i32 %25)
  %27 = icmp eq i32 %4, 0
  br i1 %27, label %38, label %28

28:                                               ; preds = %20
  %29 = add nuw i32 %4, 2
  %30 = zext i32 %29 to i64
  br label %31

31:                                               ; preds = %28, %31
  %32 = phi i64 [ 2, %28 ], [ %36, %31 ]
  %33 = getelementptr inbounds [300 x i32], [300 x i32]* %1, i64 0, i64 %32
  %34 = load i32, i32* %33, align 4, !tbaa !11
  %35 = tail call i32 (i8*, ...) @printf(i8* nonnull dereferenceable(1) getelementptr inbounds ([4 x i8], [4 x i8]* @.str.1, i64 0, i64 0), i32 %34)
  %36 = add nuw nsw i64 %32, 1
  %37 = icmp eq i64 %36, %30
  br i1 %37, label %38, label %31, !llvm.loop !13

38:                                               ; preds = %31, %20
  call void @llvm.lifetime.end.p0i8(i64 1200, i8* nonnull %2) #3
  ret void
}

; Function Attrs: argmemonly mustprogress nofree nosync nounwind willreturn
declare void @llvm.lifetime.start.p0i8(i64 immarg, i8* nocapture) #1

; Function Attrs: nofree nounwind
declare noundef i32 @printf(i8* nocapture noundef readonly, ...) local_unnamed_addr #2

; Function Attrs: argmemonly mustprogress nofree nosync nounwind willreturn
declare void @llvm.lifetime.end.p0i8(i64 immarg, i8* nocapture) #1

; Function Attrs: nofree nounwind
declare noundef i32 @getc(%struct._IO_FILE* nocapture noundef) local_unnamed_addr #2


!llvm.module.flags = !{!0, !1, !2, !3}
!llvm.ident = !{!4}

!0 = !{i32 1, !"wchar_size", i32 4}
!1 = !{i32 7, !"PIC Level", i32 2}
!2 = !{i32 7, !"PIE Level", i32 2}
!3 = !{i32 7, !"uwtable", i32 1}
!4 = !{!"clang version 13.0.0"}
!5 = !{!6, !6, i64 0}
!6 = !{!"any pointer", !7, i64 0}
!7 = !{!"omnipotent char", !8, i64 0}
!8 = !{!"Simple C/C++ TBAA"}
!9 = distinct !{!9, !10}
!10 = !{!"llvm.loop.mustprogress"}
!11 = !{!12, !12, i64 0}
!12 = !{!"int", !7, i64 0}
!13 = distinct !{!13, !10}
